target datalayout = "e-m:e-p270:32:32-p271:32:32-p272:64:64-i64:64-i128:128-f80:128-n8:16:32:64-S128"
target triple = "x86_64-pc-linux-gnu"

%"struct.vcpkg::StringView" = type { ptr, i64 }
%"struct.vcpkg::LocalizedString" = type { %"class.std::__cxx11::basic_string" }
%"class.std::__cxx11::basic_string" = type { %"struct.std::__cxx11::basic_string<char>::_Alloc_hider", i64, %union.anon.1 }
%"struct.std::__cxx11::basic_string<char>::_Alloc_hider" = type { ptr }
%union.anon.1 = type { i64, [8 x i8] }
%"struct.vcpkg::ExpectedT.15" = type <{ %union.anon.16, i8, [7 x i8] }>
%union.anon.16 = type { %"struct.vcpkg::LocalizedString" }
%"struct.vcpkg::Unit" = type { i8 }
%"struct.vcpkg::ExpectedT.59" = type <{ %union.anon.60, i8, [7 x i8] }>
%union.anon.60 = type { %"struct.vcpkg::LocalizedString" }
%"struct.vcpkg::Path" = type { %"class.std::__cxx11::basic_string" }
%"struct.vcpkg::RegistryImplementation" = type { ptr }
%"struct.vcpkg::ExpectedHolder.17" = type { %"struct.vcpkg::Unit" }
%"struct.vcpkg::ExpectedHolder.61" = type { i8 }
%"struct.vcpkg::DelayedInit.442" = type { %"class.std::unique_ptr.443" }
%"class.std::unique_ptr.443" = type { %"struct.std::__uniq_ptr_data.444" }
%"struct.std::__uniq_ptr_data.444" = type { %"class.std::__uniq_ptr_impl.445" }
%"class.std::__uniq_ptr_impl.445" = type { %"class.std::tuple.446" }
%"class.std::tuple.446" = type { %"struct.std::_Tuple_impl.447" }
%"struct.std::_Tuple_impl.447" = type { %"struct.std::_Head_base.450" }
%"struct.std::_Head_base.450" = type { ptr }
%"struct.(anonymous namespace)::FilesystemRegistry" = type { %"struct.vcpkg::RegistryImplementation", ptr, %"struct.vcpkg::Path", %"class.std::__cxx11::basic_string", %"struct.vcpkg::DelayedInit.442" }
%class.anon.607 = type { i8 }

@_ZN5vcpkg12FileVersionsE = linkonce_odr dso_local constant { ptr, i64 } { ptr @.str.7, i64 8 }, comdat, align 8

; Function Attrs: noreturn nounwind uwtable
define linkonce_odr hidden void @__clang_call_terminate(ptr noundef %0) #8 comdat {
  %2 = call ptr @__cxa_begin_catch(ptr %0) #2
  call void @_ZSt9terminatev() #19
  unreachable
}

; Function Attrs: mustprogress nounwind uwtable
define linkonce_odr dso_local void @_ZN5vcpkg14ExpectedHolderIbEC2IbTnNSt9enable_ifIXntsr3stdE9is_same_vIS1_NSt9remove_cvINSt16remove_referenceIT_E4typeEE4typeEEEiE4typeELi0EEEOS6_(ptr noundef nonnull align 1 dereferenceable(1) %0, ptr noundef nonnull align 1 dereferenceable(1) %1) unnamed_addr #1 comdat align 2 {
  %3 = alloca ptr, align 8
  %4 = alloca ptr, align 8
  store ptr %0, ptr %3, align 8
  store ptr %1, ptr %4, align 8
  %5 = load ptr, ptr %3, align 8
  %6 = getelementptr inbounds %"struct.vcpkg::ExpectedHolder.61", ptr %5, i32 0, i32 0
  %7 = load ptr, ptr %4, align 8
  %8 = load i8, ptr %7, align 1
  %9 = trunc i8 %8 to i1
  %10 = zext i1 %9 to i8
  store i8 %10, ptr %6, align 1
  ret void
}

; Function Attrs: mustprogress nounwind uwtable
define linkonce_odr dso_local void @_ZN5vcpkg15LocalizedStringC2EOS0_(ptr noundef nonnull align 8 dereferenceable(32) %0, ptr noundef nonnull align 8 dereferenceable(32) %1) unnamed_addr #1 comdat align 2 {
  %3 = alloca ptr, align 8
  %4 = alloca ptr, align 8
  store ptr %0, ptr %3, align 8
  store ptr %1, ptr %4, align 8
  %5 = load ptr, ptr %3, align 8
  %6 = getelementptr inbounds %"struct.vcpkg::LocalizedString", ptr %5, i32 0, i32 0
  %7 = load ptr, ptr %4, align 8
  %8 = getelementptr inbounds %"struct.vcpkg::LocalizedString", ptr %7, i32 0, i32 0
  call void @_ZNSt7__cxx1112basic_stringIcSt11char_traitsIcESaIcEEC1EOS4_(ptr noundef nonnull align 8 dereferenceable(32) %6, ptr noundef nonnull align 8 dereferenceable(32) %8) #2
  ret void
}

; Function Attrs: mustprogress nounwind uwtable
define linkonce_odr dso_local void @_ZN5vcpkg15LocalizedStringD2Ev(ptr noundef nonnull align 8 dereferenceable(32) %0) unnamed_addr #1 comdat align 2 {
  %2 = alloca ptr, align 8
  store ptr %0, ptr %2, align 8
  %3 = load ptr, ptr %2, align 8
  %4 = getelementptr inbounds %"struct.vcpkg::LocalizedString", ptr %3, i32 0, i32 0
  call void @_ZNSt7__cxx1112basic_stringIcSt11char_traitsIcESaIcEED1Ev(ptr noundef nonnull align 8 dereferenceable(32) %4) #2
  ret void
}

; Function Attrs: mustprogress nounwind uwtable
define linkonce_odr dso_local void @_ZN5vcpkg9ExpectedTIbNS_15LocalizedStringEEC2IbTnNSt9enable_ifIXsr3stdE16is_convertible_vIT_bEEiE4typeELi0EEEOS5_NS_15ExpectedLeftTagE(ptr noundef nonnull align 8 dereferenceable(33) %0, ptr noundef nonnull align 1 dereferenceable(1) %1) unnamed_addr #1 comdat align 2 personality ptr @__gxx_personality_v0 {
  %3 = alloca ptr, align 8
  %4 = alloca ptr, align 8
  store ptr %0, ptr %3, align 8
  store ptr %1, ptr %4, align 8
  %5 = load ptr, ptr %3, align 8
  %6 = getelementptr inbounds %"struct.vcpkg::ExpectedT.59", ptr %5, i32 0, i32 0
  %7 = load ptr, ptr %4, align 8
  invoke void @_ZN5vcpkg14ExpectedHolderIbEC2IbTnNSt9enable_ifIXntsr3stdE9is_same_vIS1_NSt9remove_cvINSt16remove_referenceIT_E4typeEE4typeEEEiE4typeELi0EEEOS6_(ptr noundef nonnull align 1 dereferenceable(1) %6, ptr noundef nonnull align 1 dereferenceable(1) %7)
          to label %8 unwind label %10

8:                                                ; preds = %2
  %9 = getelementptr inbounds %"struct.vcpkg::ExpectedT.59", ptr %5, i32 0, i32 1
  store i8 0, ptr %9, align 8
  ret void

10:                                               ; preds = %2
  %11 = landingpad { ptr, i32 }
          catch ptr null
  %12 = extractvalue { ptr, i32 } %11, 0
  call void @__clang_call_terminate(ptr %12) #19
  unreachable
}

; Function Attrs: mustprogress nounwind uwtable
define internal noundef zeroext i1 @"_ZZNK12_GLOBAL__N_118FilesystemRegistry36try_append_all_port_names_no_networkERSt6vectorINSt7__cxx1112basic_stringIcSt11char_traitsIcESaIcEEESaIS7_EEENK3$_0clEN5vcpkg4UnitE"(ptr noundef nonnull align 1 dereferenceable(1) %0) #1 align 2 {
  %2 = alloca ptr, align 8
  store ptr %0, ptr %2, align 8
  ret i1 true
}

; Function Attrs: mustprogress nounwind uwtable
define linkonce_odr dso_local noundef ptr @_ZN5vcpkg14ExpectedHolderINS_4UnitEE3getEv(ptr noundef nonnull align 1 dereferenceable(1) %0) #1 comdat align 2 {
  %2 = alloca ptr, align 8
  store ptr %0, ptr %2, align 8
  %3 = load ptr, ptr %2, align 8
  %4 = getelementptr inbounds %"struct.vcpkg::ExpectedHolder.17", ptr %3, i32 0, i32 0
  ret ptr %4
}

; Function Attrs: mustprogress nounwind uwtable
define linkonce_odr dso_local void @_ZN5vcpkg9ExpectedTIbNS_15LocalizedStringEEC2IS1_TnNSt9enable_ifIXsr3stdE16is_convertible_vIT_S1_EEiE4typeELi0EEEOS5_NS_16ExpectedRightTagE(ptr noundef nonnull align 8 dereferenceable(33) %0, ptr noundef nonnull align 8 dereferenceable(32) %1) unnamed_addr #1 comdat align 2 {
  %3 = alloca ptr, align 8
  %4 = alloca ptr, align 8
  store ptr %0, ptr %3, align 8
  store ptr %1, ptr %4, align 8
  %5 = load ptr, ptr %3, align 8
  %6 = getelementptr inbounds %"struct.vcpkg::ExpectedT.59", ptr %5, i32 0, i32 0
  %7 = load ptr, ptr %4, align 8
  call void @_ZN5vcpkg15LocalizedStringC2EOS0_(ptr noundef nonnull align 8 dereferenceable(32) %6, ptr noundef nonnull align 8 dereferenceable(32) %7) #2
  %8 = getelementptr inbounds %"struct.vcpkg::ExpectedT.59", ptr %5, i32 0, i32 1
  store i8 1, ptr %8, align 8
  ret void
}

; Function Attrs: mustprogress nounwind uwtable
define linkonce_odr dso_local void @_ZN5vcpkg4PathD2Ev(ptr noundef nonnull align 8 dereferenceable(32) %0) unnamed_addr #1 comdat align 2 {
  %2 = alloca ptr, align 8
  store ptr %0, ptr %2, align 8
  %3 = load ptr, ptr %2, align 8
  %4 = getelementptr inbounds %"struct.vcpkg::Path", ptr %3, i32 0, i32 0
  call void @_ZNSt7__cxx1112basic_stringIcSt11char_traitsIcESaIcEED1Ev(ptr noundef nonnull align 8 dereferenceable(32) %4) #2
  ret void
}

; Function Attrs: mustprogress nounwind uwtable
define linkonce_odr dso_local void @_ZN5vcpkg9ExpectedTINS_4UnitENS_15LocalizedStringEED2Ev(ptr noundef nonnull align 8 dereferenceable(33) %0) unnamed_addr #1 comdat align 2 {
  %2 = alloca ptr, align 8
  store ptr %0, ptr %2, align 8
  %3 = load ptr, ptr %2, align 8
  %4 = getelementptr inbounds %"struct.vcpkg::ExpectedT.15", ptr %3, i32 0, i32 1
  %5 = load i8, ptr %4, align 8
  %6 = trunc i8 %5 to i1
  br i1 %6, label %7, label %9

7:                                                ; preds = %1
  %8 = getelementptr inbounds %"struct.vcpkg::ExpectedT.15", ptr %3, i32 0, i32 0
  call void @_ZN5vcpkg15LocalizedStringD2Ev(ptr noundef nonnull align 8 dereferenceable(32) %8) #2
  br label %10

9:                                                ; preds = %1
  br label %10

10:                                               ; preds = %9, %7
  ret void
}

; Function Attrs: mustprogress uwtable
define internal void @"_ZNO5vcpkg9ExpectedTINS_4UnitENS_15LocalizedStringEE3mapIZNK12_GLOBAL__N_118FilesystemRegistry36try_append_all_port_names_no_networkERSt6vectorINSt7__cxx1112basic_stringIcSt11char_traitsIcESaIcEEESaISD_EEE3$_0EENS0_IDTclclsr3stdE7declvalIRT_EEclL_ZSt7declvalIS1_EDTcl9__declvalISI_ELi0EEEvEEEES2_EESI_"(ptr dead_on_unwind noalias writable sret(%"struct.vcpkg::ExpectedT.59") align 8 %0, ptr noundef nonnull align 8 dereferenceable(33) %1) #3 align 2 {
  %3 = alloca ptr, align 8
  %4 = alloca %class.anon.607, align 1
  %5 = alloca ptr, align 8
  %6 = alloca i8, align 1
  store ptr %0, ptr %3, align 8
  store ptr %1, ptr %5, align 8
  %7 = load ptr, ptr %5, align 8
  %8 = getelementptr inbounds %"struct.vcpkg::ExpectedT.15", ptr %7, i32 0, i32 1
  %9 = load i8, ptr %8, align 8
  %10 = trunc i8 %9 to i1
  br i1 %10, label %11, label %13

11:                                               ; preds = %2
  %12 = getelementptr inbounds %"struct.vcpkg::ExpectedT.15", ptr %7, i32 0, i32 0
  call void @_ZN5vcpkg9ExpectedTIbNS_15LocalizedStringEEC2IS1_TnNSt9enable_ifIXsr3stdE16is_convertible_vIT_S1_EEiE4typeELi0EEEOS5_NS_16ExpectedRightTagE(ptr noundef nonnull align 8 dereferenceable(33) %0, ptr noundef nonnull align 8 dereferenceable(32) %12) #2
  br label %18

13:                                               ; preds = %2
  %14 = getelementptr inbounds %"struct.vcpkg::ExpectedT.15", ptr %7, i32 0, i32 0
  %15 = call noundef ptr @_ZN5vcpkg14ExpectedHolderINS_4UnitEE3getEv(ptr noundef nonnull align 1 dereferenceable(1) %14) #2
  %16 = call noundef zeroext i1 @"_ZZNK12_GLOBAL__N_118FilesystemRegistry36try_append_all_port_names_no_networkERSt6vectorINSt7__cxx1112basic_stringIcSt11char_traitsIcESaIcEEESaIS7_EEENK3$_0clEN5vcpkg4UnitE"(ptr noundef nonnull align 1 dereferenceable(1) %4)
  %17 = zext i1 %16 to i8
  store i8 %17, ptr %6, align 1
  call void @_ZN5vcpkg9ExpectedTIbNS_15LocalizedStringEEC2IbTnNSt9enable_ifIXsr3stdE16is_convertible_vIT_bEEiE4typeELi0EEEOS5_NS_15ExpectedLeftTagE(ptr noundef nonnull align 8 dereferenceable(33) %0, ptr noundef nonnull align 1 dereferenceable(1) %6) #2
  br label %18

18:                                               ; preds = %13, %11
  ret void
}

; Function Attrs: mustprogress uwtable
define internal void @_ZNK12_GLOBAL__N_118FilesystemRegistry21append_all_port_namesERSt6vectorINSt7__cxx1112basic_stringIcSt11char_traitsIcESaIcEEESaIS7_EE(ptr dead_on_unwind noalias writable sret(%"struct.vcpkg::ExpectedT.15") align 8 %0, ptr noundef nonnull align 8 dereferenceable(88) %1, ptr noundef nonnull align 8 dereferenceable(24) %2) unnamed_addr #3 align 2 personality ptr @__gxx_personality_v0 {
  %4 = alloca ptr, align 8
  %5 = alloca ptr, align 8
  %6 = alloca ptr, align 8
  %7 = alloca %"struct.vcpkg::Path", align 8
  %8 = alloca %"struct.vcpkg::StringView", align 8
  %9 = alloca ptr, align 8
  %10 = alloca i32, align 4
  store ptr %0, ptr %4, align 8
  store ptr %1, ptr %5, align 8
  store ptr %2, ptr %6, align 8
  %11 = load ptr, ptr %5, align 8
  %12 = load ptr, ptr %6, align 8
  %13 = getelementptr inbounds %"struct.(anonymous namespace)::FilesystemRegistry", ptr %11, i32 0, i32 1
  %14 = load ptr, ptr %13, align 8
  %15 = getelementptr inbounds %"struct.(anonymous namespace)::FilesystemRegistry", ptr %11, i32 0, i32 2
  call void @llvm.memcpy.p0.p0.i64(ptr align 8 %8, ptr align 8 @_ZN5vcpkg12FileVersionsE, i64 16, i1 false)
  %16 = getelementptr inbounds { ptr, i64 }, ptr %8, i32 0, i32 0
  %17 = load ptr, ptr %16, align 8
  %18 = getelementptr inbounds { ptr, i64 }, ptr %8, i32 0, i32 1
  %19 = load i64, ptr %18, align 8
  call void @_ZNKR5vcpkg4PathdvENS_10StringViewE(ptr dead_on_unwind writable sret(%"struct.vcpkg::Path") align 8 %7, ptr noundef nonnull align 8 dereferenceable(32) %15, ptr %17, i64 %19)
  invoke void @_ZN12_GLOBAL__N_142load_all_port_names_from_registry_versionsERSt6vectorINSt7__cxx1112basic_stringIcSt11char_traitsIcESaIcEEESaIS6_EERKN5vcpkg18ReadOnlyFilesystemERKNSA_4PathE(ptr dead_on_unwind writable sret(%"struct.vcpkg::ExpectedT.15") align 8 %0, ptr noundef nonnull align 8 dereferenceable(24) %12, ptr noundef nonnull align 8 dereferenceable(8) %14, ptr noundef nonnull align 8 dereferenceable(32) %7)
          to label %20 unwind label %21

20:                                               ; preds = %3
  call void @_ZN5vcpkg4PathD2Ev(ptr noundef nonnull align 8 dereferenceable(32) %7) #2
  ret void

21:                                               ; preds = %3
  %22 = landingpad { ptr, i32 }
          cleanup
  %23 = extractvalue { ptr, i32 } %22, 0
  store ptr %23, ptr %9, align 8
  %24 = extractvalue { ptr, i32 } %22, 1
  store i32 %24, ptr %10, align 4
  call void @_ZN5vcpkg4PathD2Ev(ptr noundef nonnull align 8 dereferenceable(32) %7) #2
  br label %25

25:                                               ; preds = %21
  %26 = load ptr, ptr %9, align 8
  %27 = load i32, ptr %10, align 4
  %28 = insertvalue { ptr, i32 } poison, ptr %26, 0
  %29 = insertvalue { ptr, i32 } %28, i32 %27, 1
  resume { ptr, i32 } %29
}

; Function Attrs: mustprogress uwtable
define internal void @_ZNK12_GLOBAL__N_118FilesystemRegistry36try_append_all_port_names_no_networkERSt6vectorINSt7__cxx1112basic_stringIcSt11char_traitsIcESaIcEEESaIS7_EE(ptr dead_on_unwind noalias writable sret(%"struct.vcpkg::ExpectedT.59") align 8 %0, ptr noundef nonnull align 8 dereferenceable(88) %1, ptr noundef nonnull align 8 dereferenceable(24) %2) unnamed_addr #3 align 2 personality ptr @__gxx_personality_v0 {
  %4 = alloca ptr, align 8
  %5 = alloca ptr, align 8
  %6 = alloca ptr, align 8
  %7 = alloca %"struct.vcpkg::ExpectedT.15", align 8
  %8 = alloca ptr, align 8
  %9 = alloca i32, align 4
  store ptr %0, ptr %4, align 8
  store ptr %1, ptr %5, align 8
  store ptr %2, ptr %6, align 8
  %10 = load ptr, ptr %5, align 8
  %11 = load ptr, ptr %6, align 8
  call void @_ZNK12_GLOBAL__N_118FilesystemRegistry21append_all_port_namesERSt6vectorINSt7__cxx1112basic_stringIcSt11char_traitsIcESaIcEEESaIS7_EE(ptr dead_on_unwind writable sret(%"struct.vcpkg::ExpectedT.15") align 8 %7, ptr noundef nonnull align 8 dereferenceable(88) %10, ptr noundef nonnull align 8 dereferenceable(24) %11)
  invoke void @"_ZNO5vcpkg9ExpectedTINS_4UnitENS_15LocalizedStringEE3mapIZNK12_GLOBAL__N_118FilesystemRegistry36try_append_all_port_names_no_networkERSt6vectorINSt7__cxx1112basic_stringIcSt11char_traitsIcESaIcEEESaISD_EEE3$_0EENS0_IDTclclsr3stdE7declvalIRT_EEclL_ZSt7declvalIS1_EDTcl9__declvalISI_ELi0EEEvEEEES2_EESI_"(ptr dead_on_unwind writable sret(%"struct.vcpkg::ExpectedT.59") align 8 %0, ptr noundef nonnull align 8 dereferenceable(33) %7)
          to label %12 unwind label %13

12:                                               ; preds = %3
  call void @_ZN5vcpkg9ExpectedTINS_4UnitENS_15LocalizedStringEED2Ev(ptr noundef nonnull align 8 dereferenceable(33) %7) #2
  ret void

13:                                               ; preds = %3
  %14 = landingpad { ptr, i32 }
          cleanup
  %15 = extractvalue { ptr, i32 } %14, 0
  store ptr %15, ptr %8, align 8
  %16 = extractvalue { ptr, i32 } %14, 1
  store i32 %16, ptr %9, align 4
  call void @_ZN5vcpkg9ExpectedTINS_4UnitENS_15LocalizedStringEED2Ev(ptr noundef nonnull align 8 dereferenceable(33) %7) #2
  br label %17

17:                                               ; preds = %13
  %18 = load ptr, ptr %8, align 8
  %19 = load i32, ptr %9, align 4
  %20 = insertvalue { ptr, i32 } poison, ptr %18, 0
  %21 = insertvalue { ptr, i32 } %20, i32 %19, 1
  resume { ptr, i32 } %21
}