; Function Attrs: mustprogress uwtable
define internal void @_ZNK12_GLOBAL__N_118FilesystemRegistry36try_append_all_port_names_no_networkERSt6vectorINSt7__cxx1112basic_stringIcSt11char_traitsIcESaIcEEESaIS7_EE(ptr dead_on_unwind noalias writable sret(%"struct.vcpkg::ExpectedT.59") align 8 %0, ptr noundef nonnull align 8 dereferenceable(88) %1, ptr noundef nonnull align 8 dereferenceable(24) %2) unnamed_addr #2 align 2 personality ptr @__gxx_personality_v0 {
  %4 = alloca %"struct.vcpkg::Path", align 8
  %5 = alloca %"struct.vcpkg::ExpectedT.15", align 8
  call void @llvm.lifetime.start.p0(i64 32, ptr nonnull %4)
  %6 = getelementptr inbounds i8, ptr %1, i64 8
  %7 = load ptr, ptr %6, align 8, !noalias !503
  %8 = getelementptr inbounds i8, ptr %1, i64 16
  call void @_ZNKR5vcpkg4PathdvENS_10StringViewE(ptr dead_on_unwind nonnull writable sret(%"struct.vcpkg::Path") align 8 %4, ptr noundef nonnull align 8 dereferenceable(32) %8, ptr nonnull @.str.7, i64 8), !noalias !503
  invoke fastcc void @_ZN12_GLOBAL__N_142load_all_port_names_from_registry_versionsERSt6vectorINSt7__cxx1112basic_stringIcSt11char_traitsIcESaIcEEESaIS6_EERKN5vcpkg18ReadOnlyFilesystemERKNSA_4PathE(ptr dead_on_unwind noalias nonnull writable align 8 %5, ptr noundef nonnull align 8 dereferenceable(24) %2, ptr noundef nonnull align 8 dereferenceable(8) %7, ptr noundef nonnull align 8 dereferenceable(32) %4)
          to label %_ZNK12_GLOBAL__N_118FilesystemRegistry21append_all_port_namesERSt6vectorINSt7__cxx1112basic_stringIcSt11char_traitsIcESaIcEEESaIS7_EE.exit unwind label %9

9:                                                ; preds = %3
  %10 = landingpad { ptr, i32 }
          cleanup
  call void @_ZNSt7__cxx1112basic_stringIcSt11char_traitsIcESaIcEED1Ev(ptr noundef nonnull align 8 dereferenceable(32) %4) #26
  resume { ptr, i32 } %10

_ZNK12_GLOBAL__N_118FilesystemRegistry21append_all_port_namesERSt6vectorINSt7__cxx1112basic_stringIcSt11char_traitsIcESaIcEEESaIS7_EE.exit: ; preds = %3
  call void @_ZNSt7__cxx1112basic_stringIcSt11char_traitsIcESaIcEED1Ev(ptr noundef nonnull align 8 dereferenceable(32) %4) #26
  call void @llvm.lifetime.end.p0(i64 32, ptr nonnull %4)
  %11 = getelementptr inbounds i8, ptr %5, i64 32
  %12 = load i8, ptr %11, align 8
  %13 = and i8 %12, 1
  %.not.i = icmp eq i8 %13, 0
  br i1 %.not.i, label %.thread, label %15

.thread:                                          ; preds = %_ZNK12_GLOBAL__N_118FilesystemRegistry21append_all_port_namesERSt6vectorINSt7__cxx1112basic_stringIcSt11char_traitsIcESaIcEEESaIS7_EE.exit
  store i8 1, ptr %0, align 8, !alias.scope !506
  %14 = getelementptr inbounds i8, ptr %0, i64 32
  store i8 0, ptr %14, align 8, !alias.scope !506
  br label %_ZN5vcpkg9ExpectedTINS_4UnitENS_15LocalizedStringEED2Ev.exit

15:                                               ; preds = %_ZNK12_GLOBAL__N_118FilesystemRegistry21append_all_port_namesERSt6vectorINSt7__cxx1112basic_stringIcSt11char_traitsIcESaIcEEESaIS7_EE.exit
  call void @_ZNSt7__cxx1112basic_stringIcSt11char_traitsIcESaIcEEC1EOS4_(ptr noundef nonnull align 8 dereferenceable(32) %0, ptr noundef nonnull align 8 dereferenceable(32) %5) #26
  %.pre = load i8, ptr %11, align 8
  %.pre6 = and i8 %.pre, 1
  %16 = icmp eq i8 %.pre6, 0
  %17 = getelementptr inbounds i8, ptr %0, i64 32
  store i8 1, ptr %17, align 8, !alias.scope !506
  br i1 %16, label %_ZN5vcpkg9ExpectedTINS_4UnitENS_15LocalizedStringEED2Ev.exit, label %18

18:                                               ; preds = %15
  call void @_ZNSt7__cxx1112basic_stringIcSt11char_traitsIcESaIcEED1Ev(ptr noundef nonnull align 8 dereferenceable(32) %5) #26
  br label %_ZN5vcpkg9ExpectedTINS_4UnitENS_15LocalizedStringEED2Ev.exit

_ZN5vcpkg9ExpectedTINS_4UnitENS_15LocalizedStringEED2Ev.exit: ; preds = %.thread, %15, %18
  ret void
}